target datalayout = "e-m:e-p270:32:32-p271:32:32-p272:64:64-i64:64-i128:128-f80:128-n8:16:32:64-S128"
target triple = "x86_64-unknown-linux-gnu"

%class.btSphereSphereCollisionAlgorithm = type { %class.btActivatingCollisionAlgorithm, i8, ptr }
%class.btActivatingCollisionAlgorithm = type { %class.btCollisionAlgorithm }
%class.btCollisionAlgorithm = type { ptr, ptr }

; Function Attrs: mustprogress nounwind uwtable
define dso_local void @_ZN32btSphereSphereCollisionAlgorithmD2Ev(ptr noundef nonnull align 8 dereferenceable(32) %this) unnamed_addr #1 align 2 personality ptr @__gxx_personality_v0 {
entry:
  %this.addr = alloca ptr, align 8
  store ptr %this, ptr %this.addr, align 8
  %this1 = load ptr, ptr %this.addr, align 8
  store ptr getelementptr inbounds ({ [7 x ptr] }, ptr @_ZTV32btSphereSphereCollisionAlgorithm, i32 0, i32 0, i32 2), ptr %this1, align 8
  %m_ownManifold = getelementptr inbounds %class.btSphereSphereCollisionAlgorithm, ptr %this1, i32 0, i32 1
  %0 = load i8, ptr %m_ownManifold, align 8
  %tobool = trunc i8 %0 to i1
  br i1 %tobool, label %if.then, label %if.end5

if.then:                                          ; preds = %entry
  %m_manifoldPtr = getelementptr inbounds %class.btSphereSphereCollisionAlgorithm, ptr %this1, i32 0, i32 2
  %1 = load ptr, ptr %m_manifoldPtr, align 8
  %tobool2 = icmp ne ptr %1, null
  br i1 %tobool2, label %if.then3, label %if.end

if.then3:                                         ; preds = %if.then
  %m_dispatcher = getelementptr inbounds %class.btCollisionAlgorithm, ptr %this1, i32 0, i32 1
  %2 = load ptr, ptr %m_dispatcher, align 8
  %m_manifoldPtr4 = getelementptr inbounds %class.btSphereSphereCollisionAlgorithm, ptr %this1, i32 0, i32 2
  %3 = load ptr, ptr %m_manifoldPtr4, align 8
  %vtable = load ptr, ptr %2, align 8
  %vfn = getelementptr inbounds ptr, ptr %vtable, i64 4
  %4 = load ptr, ptr %vfn, align 8
  invoke void %4(ptr noundef nonnull align 8 dereferenceable(8) %2, ptr noundef %3)
          to label %invoke.cont unwind label %terminate.lpad

invoke.cont:                                      ; preds = %if.then3
  br label %if.end

if.end:                                           ; preds = %invoke.cont, %if.then
  br label %if.end5

if.end5:                                          ; preds = %if.end, %entry
  call void @_ZN30btActivatingCollisionAlgorithmD2Ev(ptr noundef nonnull align 8 dereferenceable(16) %this1) #10
  ret void

terminate.lpad:                                   ; preds = %if.then3
  %5 = landingpad { ptr, i32 }
          catch ptr null
  %6 = extractvalue { ptr, i32 } %5, 0
  call void @__clang_call_terminate(ptr %6) #11
  unreachable
}