; Function Attrs: mustprogress nounwind uwtable
define dso_local void @_ZN32btSphereSphereCollisionAlgorithmD2Ev(ptr noundef nonnull align 8 dereferenceable(32) %this) unnamed_addr #3 align 2 personality ptr @__gxx_personality_v0 {
entry:
  store ptr getelementptr inbounds ({ [7 x ptr] }, ptr @_ZTV32btSphereSphereCollisionAlgorithm, i64 0, i32 0, i64 2), ptr %this, align 8
  %m_ownManifold = getelementptr inbounds i8, ptr %this, i64 16
  %0 = load i8, ptr %m_ownManifold, align 8
  %1 = and i8 %0, 1
  %tobool.not = icmp eq i8 %1, 0
  br i1 %tobool.not, label %if.end5, label %if.then

if.then:                                          ; preds = %entry
  %m_manifoldPtr = getelementptr inbounds i8, ptr %this, i64 24
  %2 = load ptr, ptr %m_manifoldPtr, align 8
  %tobool2.not = icmp eq ptr %2, null
  br i1 %tobool2.not, label %if.end5, label %if.then3

if.then3:                                         ; preds = %if.then
  %m_dispatcher = getelementptr inbounds i8, ptr %this, i64 8
  %3 = load ptr, ptr %m_dispatcher, align 8
  %vtable = load ptr, ptr %3, align 8
  %vfn = getelementptr inbounds i8, ptr %vtable, i64 32
  %4 = load ptr, ptr %vfn, align 8
  invoke void %4(ptr noundef nonnull align 8 dereferenceable(8) %3, ptr noundef nonnull %2)
          to label %if.end5 unwind label %terminate.lpad

if.end5:                                          ; preds = %if.then, %if.then3, %entry
  tail call void @_ZN30btActivatingCollisionAlgorithmD2Ev(ptr noundef nonnull align 8 dereferenceable(16) %this) #11
  ret void

terminate.lpad:                                   ; preds = %if.then3
  %5 = landingpad { ptr, i32 }
          catch ptr null
  %6 = extractvalue { ptr, i32 } %5, 0
  tail call void @__clang_call_terminate(ptr %6) #12
  unreachable
}